target datalayout = "e-m:e-p270:32:32-p271:32:32-p272:64:64-i64:64-i128:128-f80:128-n8:16:32:64-S128"
target triple = "x86_64-unknown-linux-gnu"

%"class.base::internal::JSONParser" = type <{ i32, [4 x i8], ptr, ptr, ptr, i32, i32, i32, i32, i32, i32, i32, [4 x i8] }>
%"class.std::__cxx11::basic_string" = type { %"struct.std::__cxx11::basic_string<char>::_Alloc_hider", i64, %union.anon }
%"struct.std::__cxx11::basic_string<char>::_Alloc_hider" = type { ptr }
%union.anon = type { i64, [8 x i8] }

@.str.1 = private unnamed_addr constant [25 x i8] c"Line: %i, column: %i, %s\00", align 1

; Function Attrs: mustprogress uwtable
define dso_local void @_ZN4base8internal10JSONParser18FormatErrorMessageEiiRKNSt7__cxx1112basic_stringIcSt11char_traitsIcESaIcEEE(ptr noalias sret(%"class.std::__cxx11::basic_string") align 8 %agg.result, i32 noundef %line, i32 noundef %column, ptr noundef nonnull align 8 dereferenceable(32) %description) #1 align 2 {
entry:
  %result.ptr = alloca ptr, align 8
  %line.addr = alloca i32, align 4
  %column.addr = alloca i32, align 4
  %description.addr = alloca ptr, align 8
  store ptr %agg.result, ptr %result.ptr, align 8
  store i32 %line, ptr %line.addr, align 4
  store i32 %column, ptr %column.addr, align 4
  store ptr %description, ptr %description.addr, align 8
  %0 = load i32, ptr %line.addr, align 4
  %tobool = icmp ne i32 %0, 0
  br i1 %tobool, label %if.then, label %lor.lhs.false

lor.lhs.false:                                    ; preds = %entry
  %1 = load i32, ptr %column.addr, align 4
  %tobool1 = icmp ne i32 %1, 0
  br i1 %tobool1, label %if.then, label %if.end

if.then:                                          ; preds = %lor.lhs.false, %entry
  %2 = load i32, ptr %line.addr, align 4
  %3 = load i32, ptr %column.addr, align 4
  %4 = load ptr, ptr %description.addr, align 8
  %call = call noundef ptr @_ZNKSt7__cxx1112basic_stringIcSt11char_traitsIcESaIcEE5c_strEv(ptr noundef nonnull align 8 dereferenceable(32) %4) #11
  call void (ptr, ptr, ...) @_ZN4base12StringPrintfB5cxx11EPKcz(ptr sret(%"class.std::__cxx11::basic_string") align 8 %agg.result, ptr noundef @.str.1, i32 noundef %2, i32 noundef %3, ptr noundef %call)
  br label %return

if.end:                                           ; preds = %lor.lhs.false
  %5 = load ptr, ptr %description.addr, align 8
  call void @_ZNSt7__cxx1112basic_stringIcSt11char_traitsIcESaIcEEC1ERKS4_(ptr noundef nonnull align 8 dereferenceable(32) %agg.result, ptr noundef nonnull align 8 dereferenceable(32) %5)
  br label %return

return:                                           ; preds = %if.end, %if.then
  ret void
}

; Function Attrs: mustprogress uwtable
define dso_local void @_ZNK4base8internal10JSONParser15GetErrorMessageB5cxx11Ev(ptr noalias sret(%"class.std::__cxx11::basic_string") align 8 %agg.result, ptr noundef nonnull align 8 dereferenceable(60) %this) #1 align 2 personality ptr @__gxx_personality_v0 {
entry:
  %result.ptr = alloca ptr, align 8
  %this.addr = alloca ptr, align 8
  %ref.tmp = alloca %"class.std::__cxx11::basic_string", align 8
  %exn.slot = alloca ptr, align 8
  %ehselector.slot = alloca i32, align 4
  store ptr %agg.result, ptr %result.ptr, align 8
  store ptr %this, ptr %this.addr, align 8
  %this1 = load ptr, ptr %this.addr, align 8
  %error_line_ = getelementptr inbounds %"class.base::internal::JSONParser", ptr %this1, i32 0, i32 10
  %0 = load i32, ptr %error_line_, align 4
  %error_column_ = getelementptr inbounds %"class.base::internal::JSONParser", ptr %this1, i32 0, i32 11
  %1 = load i32, ptr %error_column_, align 8
  %error_code_ = getelementptr inbounds %"class.base::internal::JSONParser", ptr %this1, i32 0, i32 9
  %2 = load i32, ptr %error_code_, align 8
  call void @_ZN4base10JSONReader17ErrorCodeToStringB5cxx11ENS0_14JsonParseErrorE(ptr sret(%"class.std::__cxx11::basic_string") align 8 %ref.tmp, i32 noundef %2)
  invoke void @_ZN4base8internal10JSONParser18FormatErrorMessageEiiRKNSt7__cxx1112basic_stringIcSt11char_traitsIcESaIcEEE(ptr sret(%"class.std::__cxx11::basic_string") align 8 %agg.result, i32 noundef %0, i32 noundef %1, ptr noundef nonnull align 8 dereferenceable(32) %ref.tmp)
          to label %invoke.cont unwind label %lpad

invoke.cont:                                      ; preds = %entry
  call void @_ZNSt7__cxx1112basic_stringIcSt11char_traitsIcESaIcEED1Ev(ptr noundef nonnull align 8 dereferenceable(32) %ref.tmp) #11
  ret void

lpad:                                             ; preds = %entry
  %3 = landingpad { ptr, i32 }
          cleanup
  %4 = extractvalue { ptr, i32 } %3, 0
  store ptr %4, ptr %exn.slot, align 8
  %5 = extractvalue { ptr, i32 } %3, 1
  store i32 %5, ptr %ehselector.slot, align 4
  call void @_ZNSt7__cxx1112basic_stringIcSt11char_traitsIcESaIcEED1Ev(ptr noundef nonnull align 8 dereferenceable(32) %ref.tmp) #11
  br label %eh.resume

eh.resume:                                        ; preds = %lpad
  %exn = load ptr, ptr %exn.slot, align 8
  %sel = load i32, ptr %ehselector.slot, align 4
  %lpad.val = insertvalue { ptr, i32 } poison, ptr %exn, 0
  %lpad.val2 = insertvalue { ptr, i32 } %lpad.val, i32 %sel, 1
  resume { ptr, i32 } %lpad.val2
}