; Function Attrs: mustprogress uwtable
define dso_local void @_ZNK4base8internal10JSONParser15GetErrorMessageB5cxx11Ev(ptr noalias sret(%"class.std::__cxx11::basic_string") align 8 %agg.result, ptr nocapture noundef nonnull readonly align 8 dereferenceable(60) %this) local_unnamed_addr #2 align 2 personality ptr @__gxx_personality_v0 {
entry:
  %ref.tmp = alloca %"class.std::__cxx11::basic_string", align 8
  %error_line_ = getelementptr inbounds i8, ptr %this, i64 52
  %0 = load i32, ptr %error_line_, align 4
  %error_column_ = getelementptr inbounds i8, ptr %this, i64 56
  %1 = load i32, ptr %error_column_, align 8
  %error_code_ = getelementptr inbounds i8, ptr %this, i64 48
  %2 = load i32, ptr %error_code_, align 8
  call void @_ZN4base10JSONReader17ErrorCodeToStringB5cxx11ENS0_14JsonParseErrorE(ptr nonnull sret(%"class.std::__cxx11::basic_string") align 8 %ref.tmp, i32 noundef %2)
  %3 = or i32 %1, %0
  %or.cond.not.i = icmp eq i32 %3, 0
  br i1 %or.cond.not.i, label %if.end.i, label %if.then.i

if.then.i:                                        ; preds = %entry
  %call.i = call noundef ptr @_ZNKSt7__cxx1112basic_stringIcSt11char_traitsIcESaIcEE5c_strEv(ptr noundef nonnull align 8 dereferenceable(32) %ref.tmp) #17, !noalias !18
  invoke void (ptr, ptr, ...) @_ZN4base12StringPrintfB5cxx11EPKcz(ptr sret(%"class.std::__cxx11::basic_string") align 8 %agg.result, ptr noundef nonnull @.str.1, i32 noundef %0, i32 noundef %1, ptr noundef %call.i)
          to label %invoke.cont unwind label %lpad

if.end.i:                                         ; preds = %entry
  invoke void @_ZNSt7__cxx1112basic_stringIcSt11char_traitsIcESaIcEEC1ERKS4_(ptr noundef nonnull align 8 dereferenceable(32) %agg.result, ptr noundef nonnull align 8 dereferenceable(32) %ref.tmp)
          to label %invoke.cont unwind label %lpad

invoke.cont:                                      ; preds = %if.then.i, %if.end.i
  call void @_ZNSt7__cxx1112basic_stringIcSt11char_traitsIcESaIcEED1Ev(ptr noundef nonnull align 8 dereferenceable(32) %ref.tmp) #17
  ret void

lpad:                                             ; preds = %if.end.i, %if.then.i
  %4 = landingpad { ptr, i32 }
          cleanup
  call void @_ZNSt7__cxx1112basic_stringIcSt11char_traitsIcESaIcEED1Ev(ptr noundef nonnull align 8 dereferenceable(32) %ref.tmp) #17
  resume { ptr, i32 } %4
}